; Function Attrs: nounwind uwtable
define noalias nonnull ptr @l___private_Lean_Elab_DeclNameGen_0__Lean_Elab_Command_NameGen_getParentProjArg___lambda__1___boxed(ptr noundef %0, ptr noundef %1, ptr noundef %2, ptr noundef %3, ptr noundef %4, ptr noundef %5, ptr noundef %6) local_unnamed_addr #1 {
  %8 = tail call ptr @l_Lean_Expr_appArg_x21(ptr noundef %0) #4
  tail call void @lean_inc_heartbeat() #4
  %9 = tail call noalias ptr @mi_malloc_small(i64 noundef 16) #4
  %10 = icmp eq ptr %9, null
  br i1 %10, label %11, label %lean_alloc_ctor.exit.i

11:                                               ; preds = %7
  tail call void @lean_internal_panic_out_of_memory() #5
  unreachable

lean_alloc_ctor.exit.i:                           ; preds = %7
  %12 = getelementptr inbounds nuw i8, ptr %9, i64 4
  store i32 1, ptr %9, align 4, !tbaa !4
  store i32 16842768, ptr %12, align 4
  %13 = getelementptr inbounds nuw i8, ptr %9, i64 8
  store ptr %8, ptr %13, align 8, !tbaa !9
  tail call void @lean_inc_heartbeat() #4
  %14 = tail call noalias ptr @mi_malloc_small(i64 noundef 24) #4
  %15 = icmp eq ptr %14, null
  br i1 %15, label %16, label %l___private_Lean_Elab_DeclNameGen_0__Lean_Elab_Command_NameGen_getParentProjArg___lambda__1.exit

16:                                               ; preds = %lean_alloc_ctor.exit.i
  tail call void @lean_internal_panic_out_of_memory() #5
  unreachable

l___private_Lean_Elab_DeclNameGen_0__Lean_Elab_Command_NameGen_getParentProjArg___lambda__1.exit: ; preds = %lean_alloc_ctor.exit.i
  %17 = getelementptr inbounds nuw i8, ptr %14, i64 4
  store i32 1, ptr %14, align 4, !tbaa !4
  store i32 131096, ptr %17, align 4
  %18 = getelementptr inbounds nuw i8, ptr %14, i64 8
  store ptr %9, ptr %18, align 8, !tbaa !9
  %19 = getelementptr inbounds nuw i8, ptr %14, i64 16
  store ptr %6, ptr %19, align 8, !tbaa !9
  %20 = ptrtoint ptr %5 to i64
  %21 = and i64 %20, 1
  %.not = icmp eq i64 %21, 0
  br i1 %.not, label %22, label %lean_dec.exit18

22:                                               ; preds = %l___private_Lean_Elab_DeclNameGen_0__Lean_Elab_Command_NameGen_getParentProjArg___lambda__1.exit
  %23 = load i32, ptr %5, align 4, !tbaa !4
  %24 = icmp sgt i32 %23, 1
  br i1 %24, label %25, label %27, !prof !11

25:                                               ; preds = %22
  %26 = add nsw i32 %23, -1
  store i32 %26, ptr %5, align 4, !tbaa !4
  br label %lean_dec.exit18

27:                                               ; preds = %22
  %.not.i = icmp eq i32 %23, 0
  br i1 %.not.i, label %lean_dec.exit18, label %28

28:                                               ; preds = %27
  tail call void @lean_dec_ref_cold(ptr noundef nonnull %5) #4
  br label %lean_dec.exit18

lean_dec.exit18:                                  ; preds = %28, %27, %25, %l___private_Lean_Elab_DeclNameGen_0__Lean_Elab_Command_NameGen_getParentProjArg___lambda__1.exit
  %29 = ptrtoint ptr %4 to i64
  %30 = and i64 %29, 1
  %.not29 = icmp eq i64 %30, 0
  br i1 %.not29, label %31, label %lean_dec.exit17

31:                                               ; preds = %lean_dec.exit18
  %32 = load i32, ptr %4, align 4, !tbaa !4
  %33 = icmp sgt i32 %32, 1
  br i1 %33, label %34, label %36, !prof !11

34:                                               ; preds = %31
  %35 = add nsw i32 %32, -1
  store i32 %35, ptr %4, align 4, !tbaa !4
  br label %lean_dec.exit17

36:                                               ; preds = %31
  %.not.i19 = icmp eq i32 %32, 0
  br i1 %.not.i19, label %lean_dec.exit17, label %37

37:                                               ; preds = %36
  tail call void @lean_dec_ref_cold(ptr noundef nonnull %4) #4
  br label %lean_dec.exit17

lean_dec.exit17:                                  ; preds = %37, %36, %34, %lean_dec.exit18
  %38 = ptrtoint ptr %3 to i64
  %39 = and i64 %38, 1
  %.not30 = icmp eq i64 %39, 0
  br i1 %.not30, label %40, label %lean_dec.exit16

40:                                               ; preds = %lean_dec.exit17
  %41 = load i32, ptr %3, align 4, !tbaa !4
  %42 = icmp sgt i32 %41, 1
  br i1 %42, label %43, label %45, !prof !11

43:                                               ; preds = %40
  %44 = add nsw i32 %41, -1
  store i32 %44, ptr %3, align 4, !tbaa !4
  br label %lean_dec.exit16

45:                                               ; preds = %40
  %.not.i21 = icmp eq i32 %41, 0
  br i1 %.not.i21, label %lean_dec.exit16, label %46

46:                                               ; preds = %45
  tail call void @lean_dec_ref_cold(ptr noundef nonnull %3) #4
  br label %lean_dec.exit16

lean_dec.exit16:                                  ; preds = %46, %45, %43, %lean_dec.exit17
  %47 = ptrtoint ptr %2 to i64
  %48 = and i64 %47, 1
  %.not31 = icmp eq i64 %48, 0
  br i1 %.not31, label %49, label %lean_dec.exit15

49:                                               ; preds = %lean_dec.exit16
  %50 = load i32, ptr %2, align 4, !tbaa !4
  %51 = icmp sgt i32 %50, 1
  br i1 %51, label %52, label %54, !prof !11

52:                                               ; preds = %49
  %53 = add nsw i32 %50, -1
  store i32 %53, ptr %2, align 4, !tbaa !4
  br label %lean_dec.exit15

54:                                               ; preds = %49
  %.not.i23 = icmp eq i32 %50, 0
  br i1 %.not.i23, label %lean_dec.exit15, label %55

55:                                               ; preds = %54
  tail call void @lean_dec_ref_cold(ptr noundef nonnull %2) #4
  br label %lean_dec.exit15

lean_dec.exit15:                                  ; preds = %55, %54, %52, %lean_dec.exit16
  %56 = ptrtoint ptr %1 to i64
  %57 = and i64 %56, 1
  %.not32 = icmp eq i64 %57, 0
  br i1 %.not32, label %58, label %lean_dec.exit14

58:                                               ; preds = %lean_dec.exit15
  %59 = load i32, ptr %1, align 4, !tbaa !4
  %60 = icmp sgt i32 %59, 1
  br i1 %60, label %61, label %63, !prof !11

61:                                               ; preds = %58
  %62 = add nsw i32 %59, -1
  store i32 %62, ptr %1, align 4, !tbaa !4
  br label %lean_dec.exit14

63:                                               ; preds = %58
  %.not.i25 = icmp eq i32 %59, 0
  br i1 %.not.i25, label %lean_dec.exit14, label %64

64:                                               ; preds = %63
  tail call void @lean_dec_ref_cold(ptr noundef nonnull %1) #4
  br label %lean_dec.exit14

lean_dec.exit14:                                  ; preds = %64, %63, %61, %lean_dec.exit15
  %65 = ptrtoint ptr %0 to i64
  %66 = and i64 %65, 1
  %.not33 = icmp eq i64 %66, 0
  br i1 %.not33, label %67, label %lean_dec.exit

67:                                               ; preds = %lean_dec.exit14
  %68 = load i32, ptr %0, align 4, !tbaa !4
  %69 = icmp sgt i32 %68, 1
  br i1 %69, label %70, label %72, !prof !11

70:                                               ; preds = %67
  %71 = add nsw i32 %68, -1
  store i32 %71, ptr %0, align 4, !tbaa !4
  br label %lean_dec.exit

72:                                               ; preds = %67
  %.not.i27 = icmp eq i32 %68, 0
  br i1 %.not.i27, label %lean_dec.exit, label %73

73:                                               ; preds = %72
  tail call void @lean_dec_ref_cold(ptr noundef nonnull %0) #4
  br label %lean_dec.exit

lean_dec.exit:                                    ; preds = %73, %72, %70, %lean_dec.exit14
  ret ptr %14
}